ccopy_reg
_reconstructor
p0
(csensor_msgs.msg._Image
Image
p1
c__builtin__
object
p2
Ntp3
Rp4
(lp5
g0
(cstd_msgs.msg._Header
Header
p6
g2
Ntp7
Rp8
(lp9
I0
ag0
(cgenpy.rostime
Time
p10
g2
Ntp11
Rp12
(lp13
I0
aI0
abaS''
p14
abaI0
aI0
ag14
aI0
aI0
ag14
ab.